; Function Attrs: nounwind uwtable
define noalias noundef ptr @Bmc_LoadStart(ptr noundef %0) local_unnamed_addr #0 {
Vec_IntPush.exit:
  %1 = alloca i32, align 4
  call void @llvm.lifetime.start.p0(i64 4, ptr nonnull %1) #14
  tail call void @Gia_ManSetPhase(ptr noundef %0) #14
  tail call void @Gia_ManCleanValue(ptr noundef %0) #14
  tail call void @Gia_ManCreateRefs(ptr noundef %0) #14
  %2 = tail call noalias dereferenceable_or_null(40) ptr @calloc(i64 noundef 1, i64 noundef 40) #15
  %3 = getelementptr inbounds nuw i8, ptr %2, i64 8
  store ptr %0, ptr %3, align 8, !tbaa !3
  %4 = tail call ptr @sat_solver_new() #14
  %5 = getelementptr inbounds nuw i8, ptr %2, i64 16
  store ptr %4, ptr %5, align 8, !tbaa !39
  %6 = tail call noalias dereferenceable_or_null(16) ptr @malloc(i64 noundef 16) #13
  %7 = getelementptr inbounds nuw i8, ptr %6, i64 4
  store i32 1000, ptr %6, align 8, !tbaa !36
  %8 = tail call noalias dereferenceable_or_null(4000) ptr @malloc(i64 noundef 4000) #13
  %9 = getelementptr inbounds nuw i8, ptr %6, i64 8
  store ptr %8, ptr %9, align 8, !tbaa !37
  %10 = getelementptr inbounds nuw i8, ptr %2, i64 24
  store ptr %6, ptr %10, align 8, !tbaa !34
  store i32 1, ptr %7, align 4, !tbaa !35
  store i32 0, ptr %8, align 4, !tbaa !38
  %11 = tail call i32 @Bmc_LoadGetSatVar(ptr noundef %2, i32 noundef 0)
  %12 = shl nsw i32 %11, 1
  %13 = or disjoint i32 %12, 1
  store i32 %13, ptr %1, align 4, !tbaa !38
  %14 = getelementptr inbounds nuw i8, ptr %1, i64 4
  %15 = call i32 @sat_solver_addclause(ptr noundef %4, ptr noundef nonnull %1, ptr noundef nonnull %14) #14
  call void @llvm.lifetime.end.p0(i64 4, ptr nonnull %1) #14
  ret ptr %2
}